target datalayout = "e-m:e-p270:32:32-p271:32:32-p272:64:64-i64:64-i128:128-f80:128-n8:16:32:64-S128"
target triple = "x86_64-pc-linux-gnu"

%struct.NameEntry = type { ptr, i32, i32, i32, i32, ptr }

; Function Attrs: nounwind uwtable
define internal i32 @i_free_name_entry(ptr noundef %0, ptr noundef %1, ptr noundef %2) #0 {
  %4 = alloca ptr, align 8
  %5 = alloca ptr, align 8
  %6 = alloca ptr, align 8
  store ptr %0, ptr %4, align 8, !tbaa !4
  store ptr %1, ptr %5, align 8, !tbaa !9
  store ptr %2, ptr %6, align 8, !tbaa !9
  %7 = load ptr, ptr %5, align 8, !tbaa !9
  %8 = getelementptr inbounds nuw %struct.NameEntry, ptr %7, i32 0, i32 0
  %9 = load ptr, ptr %8, align 8, !tbaa !46
  call void @free(ptr noundef %9) #8
  %10 = load ptr, ptr %5, align 8, !tbaa !9
  %11 = getelementptr inbounds nuw %struct.NameEntry, ptr %10, i32 0, i32 5
  %12 = load ptr, ptr %11, align 8, !tbaa !51
  %13 = icmp ne ptr %12, null
  br i1 %13, label %14, label %18

14:                                               ; preds = %3
  %15 = load ptr, ptr %5, align 8, !tbaa !9
  %16 = getelementptr inbounds nuw %struct.NameEntry, ptr %15, i32 0, i32 5
  %17 = load ptr, ptr %16, align 8, !tbaa !51
  call void @free(ptr noundef %17) #8
  br label %18

18:                                               ; preds = %14, %3
  %19 = load ptr, ptr %4, align 8, !tbaa !4
  call void @free(ptr noundef %19) #8
  %20 = load ptr, ptr %5, align 8, !tbaa !9
  call void @free(ptr noundef %20) #8
  ret i32 2
}