; Function Attrs: mustprogress nounwind willreturn uwtable
define internal noundef i32 @i_free_name_entry(ptr noundef captures(none) %0, ptr noundef captures(none) %1, ptr readnone captures(none) %2) #15 {
  %4 = load ptr, ptr %1, align 8, !tbaa !37
  tail call void @free(ptr noundef %4) #25
  %5 = getelementptr inbounds nuw i8, ptr %1, i64 24
  %6 = load ptr, ptr %5, align 8, !tbaa !42
  %.not = icmp eq ptr %6, null
  br i1 %.not, label %8, label %7

7:                                                ; preds = %3
  tail call void @free(ptr noundef nonnull %6) #25
  br label %8

8:                                                ; preds = %7, %3
  tail call void @free(ptr noundef %0) #25
  tail call void @free(ptr noundef nonnull %1) #25
  ret i32 2
}